target datalayout = "e-m:e-p270:32:32-p271:32:32-p272:64:64-i64:64-i128:128-f80:128-n8:16:32:64-S128"
target triple = "x86_64-pc-linux-gnu"

%struct.mbedtls_lmots_public_t = type { %struct.mbedtls_lmots_parameters_t, [32 x i8], i8 }
%struct.mbedtls_lmots_parameters_t = type { [16 x i8], [4 x i8], i32 }

; Function Attrs: alwaysinline nounwind uwtable
define internal i32 @mbedtls_get_unaligned_uint32(ptr noundef %0) #3 {
  %2 = alloca ptr, align 8
  %3 = alloca i32, align 4
  store ptr %0, ptr %2, align 8, !tbaa !7
  call void @llvm.lifetime.start.p0(i64 4, ptr %3) #8
  %4 = load ptr, ptr %2, align 8, !tbaa !7
  call void @llvm.memcpy.p0.p0.i64(ptr align 4 %3, ptr align 1 %4, i64 4, i1 false)
  %5 = load i32, ptr %3, align 4, !tbaa !3
  call void @llvm.lifetime.end.p0(i64 4, ptr %3) #8
  ret i32 %5
}

; Function Attrs: nounwind uwtable
define hidden i32 @mbedtls_lmots_verify(ptr noundef %0, ptr noundef %1, i64 noundef %2, ptr noundef %3, i64 noundef %4) #0 {
  %6 = alloca i32, align 4
  %7 = alloca ptr, align 8
  %8 = alloca ptr, align 8
  %9 = alloca i64, align 8
  %10 = alloca ptr, align 8
  %11 = alloca i64, align 8
  %12 = alloca [32 x i8], align 16
  %13 = alloca i32, align 4
  %14 = alloca i32, align 4
  store ptr %0, ptr %7, align 8, !tbaa !7
  store ptr %1, ptr %8, align 8, !tbaa !9
  store i64 %2, ptr %9, align 8, !tbaa !11
  store ptr %3, ptr %10, align 8, !tbaa !9
  store i64 %4, ptr %11, align 8, !tbaa !11
  call void @llvm.lifetime.start.p0(i64 32, ptr %12) #8
  call void @llvm.lifetime.start.p0(i64 4, ptr %13) #8
  store i32 -110, ptr %13, align 4, !tbaa !3
  %15 = load ptr, ptr %8, align 8, !tbaa !9
  %16 = icmp eq ptr %15, null
  br i1 %16, label %17, label %21

17:                                               ; preds = %5
  %18 = load i64, ptr %9, align 8, !tbaa !11
  %19 = icmp ne i64 %18, 0
  br i1 %19, label %20, label %21

20:                                               ; preds = %17
  store i32 -17, ptr %6, align 4
  store i32 1, ptr %14, align 4
  br label %72

21:                                               ; preds = %17, %5
  %22 = load ptr, ptr %7, align 8, !tbaa !7
  %23 = getelementptr inbounds nuw %struct.mbedtls_lmots_public_t, ptr %22, i32 0, i32 2
  %24 = load i8, ptr %23, align 4, !tbaa !16
  %25 = icmp ne i8 %24, 0
  br i1 %25, label %27, label %26

26:                                               ; preds = %21
  store i32 -17, ptr %6, align 4
  store i32 1, ptr %14, align 4
  br label %72

27:                                               ; preds = %21
  %28 = load ptr, ptr %7, align 8, !tbaa !7
  %29 = getelementptr inbounds nuw %struct.mbedtls_lmots_public_t, ptr %28, i32 0, i32 0
  %30 = getelementptr inbounds nuw %struct.mbedtls_lmots_parameters_t, ptr %29, i32 0, i32 2
  %31 = load i32, ptr %30, align 4, !tbaa !13
  %32 = icmp ne i32 %31, 4
  br i1 %32, label %33, label %34

33:                                               ; preds = %27
  store i32 -17, ptr %6, align 4
  store i32 1, ptr %14, align 4
  br label %72

34:                                               ; preds = %27
  %35 = load i64, ptr %11, align 8, !tbaa !11
  %36 = icmp ult i64 %35, 4
  br i1 %36, label %37, label %38

37:                                               ; preds = %34
  store i32 -21, ptr %6, align 4
  store i32 1, ptr %14, align 4
  br label %72

38:                                               ; preds = %34
  %39 = load ptr, ptr %10, align 8, !tbaa !9
  %40 = getelementptr inbounds i8, ptr %39, i64 0
  %41 = call i32 @mbedtls_get_unaligned_uint32(ptr noundef %40)
  %42 = call i32 @llvm.bswap.i32(i32 %41)
  %43 = icmp ne i32 %42, 4
  br i1 %43, label %44, label %45

44:                                               ; preds = %38
  store i32 -21, ptr %6, align 4
  store i32 1, ptr %14, align 4
  br label %72

45:                                               ; preds = %38
  %46 = load ptr, ptr %7, align 8, !tbaa !7
  %47 = getelementptr inbounds nuw %struct.mbedtls_lmots_public_t, ptr %46, i32 0, i32 0
  %48 = load ptr, ptr %8, align 8, !tbaa !9
  %49 = load i64, ptr %9, align 8, !tbaa !11
  %50 = load ptr, ptr %10, align 8, !tbaa !9
  %51 = load i64, ptr %11, align 8, !tbaa !11
  %52 = getelementptr inbounds [32 x i8], ptr %12, i64 0, i64 0
  %53 = load ptr, ptr %7, align 8, !tbaa !7
  %54 = getelementptr inbounds nuw %struct.mbedtls_lmots_public_t, ptr %53, i32 0, i32 0
  %55 = getelementptr inbounds nuw %struct.mbedtls_lmots_parameters_t, ptr %54, i32 0, i32 2
  %56 = load i32, ptr %55, align 4, !tbaa !13
  %57 = icmp eq i32 %56, 4
  %58 = select i1 %57, i32 32, i32 0
  %59 = zext i32 %58 to i64
  %60 = call i32 @mbedtls_lmots_calculate_public_key_candidate(ptr noundef %47, ptr noundef %48, i64 noundef %49, ptr noundef %50, i64 noundef %51, ptr noundef %52, i64 noundef %59, ptr noundef null)
  store i32 %60, ptr %13, align 4, !tbaa !3
  %61 = load i32, ptr %13, align 4, !tbaa !3
  %62 = icmp ne i32 %61, 0
  br i1 %62, label %63, label %64

63:                                               ; preds = %45
  store i32 -21, ptr %6, align 4
  store i32 1, ptr %14, align 4
  br label %72

64:                                               ; preds = %45
  %65 = load ptr, ptr %7, align 8, !tbaa !7
  %66 = getelementptr inbounds nuw %struct.mbedtls_lmots_public_t, ptr %65, i32 0, i32 1
  %67 = getelementptr inbounds [32 x i8], ptr %66, i64 0, i64 0
  %68 = call i32 @memcmp(ptr noundef %12, ptr noundef %67, i64 noundef 32) #9
  %69 = icmp ne i32 %68, 0
  br i1 %69, label %70, label %71

70:                                               ; preds = %64
  store i32 -21, ptr %6, align 4
  store i32 1, ptr %14, align 4
  br label %72

71:                                               ; preds = %64
  store i32 0, ptr %6, align 4
  store i32 1, ptr %14, align 4
  br label %72

72:                                               ; preds = %71, %70, %63, %44, %37, %33, %26, %20
  call void @llvm.lifetime.end.p0(i64 4, ptr %13) #8
  call void @llvm.lifetime.end.p0(i64 32, ptr %12) #8
  %73 = load i32, ptr %6, align 4
  ret i32 %73
}