; Function Attrs: nounwind uwtable
define hidden range(i32 -21, 1) i32 @mbedtls_lmots_verify(ptr noundef %0, ptr noundef %1, i64 noundef %2, ptr noundef %3, i64 noundef %4) local_unnamed_addr #3 {
  %6 = alloca [32 x i8], align 16
  call void @llvm.lifetime.start.p0(i64 32, ptr nonnull %6) #10
  %7 = icmp eq ptr %1, null
  %8 = icmp ne i64 %2, 0
  %or.cond = and i1 %7, %8
  br i1 %or.cond, label %22, label %9

9:                                                ; preds = %5
  %10 = getelementptr inbounds nuw i8, ptr %0, i64 56
  %11 = load i8, ptr %10, align 4, !tbaa !9
  %.not = icmp eq i8 %11, 0
  br i1 %.not, label %22, label %12

12:                                               ; preds = %9
  %13 = getelementptr inbounds nuw i8, ptr %0, i64 20
  %14 = load i32, ptr %13, align 4, !tbaa !3
  %.not16 = icmp eq i32 %14, 4
  br i1 %.not16, label %15, label %22

15:                                               ; preds = %12
  %16 = icmp ult i64 %4, 4
  br i1 %16, label %22, label %17

17:                                               ; preds = %15
  %.0.copyload.i = load i32, ptr %3, align 1
  %.not17 = icmp eq i32 %.0.copyload.i, 67108864
  br i1 %.not17, label %18, label %22

18:                                               ; preds = %17
  %19 = call i32 @mbedtls_lmots_calculate_public_key_candidate(ptr noundef nonnull %0, ptr noundef %1, i64 noundef %2, ptr noundef nonnull %3, i64 noundef %4, ptr noundef nonnull %6, i64 noundef 32, ptr noundef null)
  %.not18 = icmp eq i32 %19, 0
  br i1 %.not18, label %20, label %22

20:                                               ; preds = %18
  %21 = getelementptr inbounds nuw i8, ptr %0, i64 24
  %bcmp = call i32 @bcmp(ptr noundef nonnull dereferenceable(32) %6, ptr noundef nonnull dereferenceable(32) %21, i64 32)
  %.not19 = icmp eq i32 %bcmp, 0
  %. = select i1 %.not19, i32 0, i32 -21
  br label %22

22:                                               ; preds = %20, %18, %17, %15, %12, %9, %5
  %.0 = phi i32 [ -17, %5 ], [ -17, %9 ], [ -17, %12 ], [ -21, %15 ], [ -21, %17 ], [ -21, %18 ], [ %., %20 ]
  call void @llvm.lifetime.end.p0(i64 32, ptr nonnull %6) #10
  ret i32 %.0
}